target datalayout = "e-m:e-p270:32:32-p271:32:32-p272:64:64-i64:64-i128:128-f80:128-n8:16:32:64-S128"
target triple = "x86_64-pc-linux-gnu"

%struct.mock_srv_ctx = type { ptr, ptr, ptr, ptr, ptr, ptr, ptr, ptr, ptr, ptr, i32, ptr, i32, i32, i32 }

@.str = private unnamed_addr constant [35 x i8] c"../openssl/apps/lib/cmp_mock_srv.c\00", align 1
@__func__.ossl_cmp_mock_srv_set_statusInfo = private unnamed_addr constant [33 x i8] c"ossl_cmp_mock_srv_set_statusInfo\00", align 1

; Function Attrs: nounwind uwtable
define dso_local i32 @ossl_cmp_mock_srv_set_statusInfo(ptr noundef %0, i32 noundef %1, i32 noundef %2, ptr noundef %3) #0 {
  %5 = alloca i32, align 4
  %6 = alloca ptr, align 8
  %7 = alloca i32, align 4
  %8 = alloca i32, align 4
  %9 = alloca ptr, align 8
  %10 = alloca ptr, align 8
  %11 = alloca ptr, align 8
  %12 = alloca i32, align 4
  store ptr %0, ptr %6, align 8, !tbaa !4
  store i32 %1, ptr %7, align 4, !tbaa !31
  store i32 %2, ptr %8, align 4, !tbaa !31
  store ptr %3, ptr %9, align 8, !tbaa !32
  call void @llvm.lifetime.start.p0(i64 8, ptr %10) #5
  %13 = load ptr, ptr %6, align 8, !tbaa !4
  %14 = call ptr @OSSL_CMP_SRV_CTX_get0_custom_ctx(ptr noundef %13)
  store ptr %14, ptr %10, align 8, !tbaa !11
  call void @llvm.lifetime.start.p0(i64 8, ptr %11) #5
  %15 = load ptr, ptr %10, align 8, !tbaa !11
  %16 = icmp eq ptr %15, null
  br i1 %16, label %17, label %18

17:                                               ; preds = %4
  call void @ERR_new()
  call void @ERR_set_debug(ptr noundef @.str, i32 noundef 167, ptr noundef @__func__.ossl_cmp_mock_srv_set_statusInfo)
  call void (i32, i32, ptr, ...) @ERR_set_error(i32 noundef 58, i32 noundef 103, ptr noundef null)
  store i32 0, ptr %5, align 4
  store i32 1, ptr %12, align 4
  br label %32

18:                                               ; preds = %4
  %19 = load i32, ptr %7, align 4, !tbaa !31
  %20 = load i32, ptr %8, align 4, !tbaa !31
  %21 = load ptr, ptr %9, align 8, !tbaa !32
  %22 = call ptr @OSSL_CMP_STATUSINFO_new(i32 noundef %19, i32 noundef %20, ptr noundef %21)
  store ptr %22, ptr %11, align 8, !tbaa !34
  %23 = icmp eq ptr %22, null
  br i1 %23, label %24, label %25

24:                                               ; preds = %18
  store i32 0, ptr %5, align 4
  store i32 1, ptr %12, align 4
  br label %32

25:                                               ; preds = %18
  %26 = load ptr, ptr %10, align 8, !tbaa !11
  %27 = getelementptr inbounds nuw %struct.mock_srv_ctx, ptr %26, i32 0, i32 9
  %28 = load ptr, ptr %27, align 8, !tbaa !35
  call void @OSSL_CMP_PKISI_free(ptr noundef %28)
  %29 = load ptr, ptr %11, align 8, !tbaa !34
  %30 = load ptr, ptr %10, align 8, !tbaa !11
  %31 = getelementptr inbounds nuw %struct.mock_srv_ctx, ptr %30, i32 0, i32 9
  store ptr %29, ptr %31, align 8, !tbaa !35
  store i32 1, ptr %5, align 4
  store i32 1, ptr %12, align 4
  br label %32

32:                                               ; preds = %25, %24, %17
  call void @llvm.lifetime.end.p0(i64 8, ptr %11) #5
  call void @llvm.lifetime.end.p0(i64 8, ptr %10) #5
  %33 = load i32, ptr %5, align 4
  ret i32 %33
}