; Function Attrs: nounwind uwtable
define dso_local range(i32 0, 2) i32 @ossl_cmp_mock_srv_set_statusInfo(ptr noundef %0, i32 noundef %1, i32 noundef %2, ptr noundef %3) local_unnamed_addr #0 {
  %5 = tail call ptr @OSSL_CMP_SRV_CTX_get0_custom_ctx(ptr noundef %0) #4
  %6 = icmp eq ptr %5, null
  br i1 %6, label %7, label %8

7:                                                ; preds = %4
  tail call void @ERR_new() #4
  tail call void @ERR_set_debug(ptr noundef nonnull @.str, i32 noundef 167, ptr noundef nonnull @__func__.ossl_cmp_mock_srv_set_statusInfo) #4
  tail call void (i32, i32, ptr, ...) @ERR_set_error(i32 noundef 58, i32 noundef 103, ptr noundef null) #4
  br label %14

8:                                                ; preds = %4
  %9 = tail call ptr @OSSL_CMP_STATUSINFO_new(i32 noundef %1, i32 noundef %2, ptr noundef %3) #4
  %10 = icmp eq ptr %9, null
  br i1 %10, label %14, label %11

11:                                               ; preds = %8
  %12 = getelementptr inbounds nuw i8, ptr %5, i64 72
  %13 = load ptr, ptr %12, align 8, !tbaa !24
  tail call void @OSSL_CMP_PKISI_free(ptr noundef %13) #4
  store ptr %9, ptr %12, align 8, !tbaa !24
  br label %14

14:                                               ; preds = %8, %11, %7
  %.0 = phi i32 [ 0, %7 ], [ 1, %11 ], [ 0, %8 ]
  ret i32 %.0
}